; Function Attrs: nounwind uwtable
define void @Pla_WritePla(ptr noundef readonly captures(none) %0, ptr noundef %1) local_unnamed_addr #0 {
  %3 = tail call ptr @Pla_WritePlaInt(ptr noundef %0)
  %4 = getelementptr i8, ptr %3, i64 4
  %.val = load i32, ptr %4, align 4, !tbaa !3
  %5 = icmp sgt i32 %.val, 0
  br i1 %5, label %6, label %16

6:                                                ; preds = %2
  %7 = tail call noalias ptr @fopen(ptr noundef %1, ptr noundef nonnull @.str.13)
  %8 = icmp eq ptr %7, null
  br i1 %8, label %9, label %11

9:                                                ; preds = %6
  %10 = tail call i32 (ptr, ...) @printf(ptr noundef nonnull dereferenceable(1) @.str.14, ptr noundef %1)
  br label %16

11:                                               ; preds = %6
  %12 = getelementptr i8, ptr %3, i64 8
  %.val7 = load ptr, ptr %12, align 8, !tbaa !11
  %.val6 = load i32, ptr %4, align 4, !tbaa !3
  %13 = sext i32 %.val6 to i64
  %14 = tail call i64 @fwrite(ptr noundef %.val7, i64 noundef 1, i64 noundef %13, ptr noundef nonnull %7)
  %15 = tail call i32 @fclose(ptr noundef nonnull %7)
  br label %16

16:                                               ; preds = %2, %11, %9
  %17 = getelementptr inbounds nuw i8, ptr %3, i64 8
  %18 = load ptr, ptr %17, align 8, !tbaa !11
  %.not.i = icmp eq ptr %18, null
  br i1 %.not.i, label %Vec_StrFreeP.exit, label %.thread.i

.thread.i:                                        ; preds = %16
  tail call void @free(ptr noundef nonnull %18) #12
  br label %Vec_StrFreeP.exit

Vec_StrFreeP.exit:                                ; preds = %16, %.thread.i
  tail call void @free(ptr noundef nonnull %3) #12
  ret void
}